# user@protostar:/opt/protostar/bin$ objdump --disassembler-options=intel-mnemonic -t -d format2

format2:     file format elf32-i386

SYMBOL TABLE:
08048114 l    d  .interp        00000000              .interp
08048128 l    d  .note.ABI-tag  00000000              .note.ABI-tag
08048148 l    d  .note.gnu.build-id     00000000              .note.gnu.build-id
0804816c l    d  .hash  00000000              .hash
080481a0 l    d  .gnu.hash      00000000              .gnu.hash
080481c4 l    d  .dynsym        00000000              .dynsym
08048244 l    d  .dynstr        00000000              .dynstr
080482a2 l    d  .gnu.version   00000000              .gnu.version
080482b4 l    d  .gnu.version_r 00000000              .gnu.version_r
080482d4 l    d  .rel.dyn       00000000              .rel.dyn
080482e4 l    d  .rel.plt       00000000              .rel.plt
0804830c l    d  .init  00000000              .init
0804833c l    d  .plt   00000000              .plt
080483a0 l    d  .text  00000000              .text
0804856c l    d  .fini  00000000              .fini
08048588 l    d  .rodata        00000000              .rodata
080485c4 l    d  .eh_frame      00000000              .eh_frame
080495c8 l    d  .ctors 00000000              .ctors
080495d0 l    d  .dtors 00000000              .dtors
080495d8 l    d  .jcr   00000000              .jcr
080495dc l    d  .dynamic       00000000              .dynamic
080496ac l    d  .got   00000000              .got
080496b0 l    d  .got.plt       00000000              .got.plt
080496d0 l    d  .data  00000000              .data
080496d8 l    d  .bss   00000000              .bss
00000000 l    d  .stab  00000000              .stab
00000000 l    d  .stabstr       00000000              .stabstr
00000000 l    d  .comment       00000000              .comment
00000000 l    df *ABS*  00000000              crtstuff.c
080495c8 l     O .ctors 00000000              __CTOR_LIST__
080495d0 l     O .dtors 00000000              __DTOR_LIST__
080495d8 l     O .jcr   00000000              __JCR_LIST__
080483d0 l     F .text  00000000              __do_global_dtors_aux
080496dc l     O .bss   00000001              completed.5982
080496e0 l     O .bss   00000004              dtor_idx.5984
08048430 l     F .text  00000000              frame_dummy
00000000 l    df *ABS*  00000000              crtstuff.c
080495cc l     O .ctors 00000000              __CTOR_END__
080485c4 l     O .eh_frame      00000000              __FRAME_END__
080495d8 l     O .jcr   00000000              __JCR_END__
08048540 l     F .text  00000000              __do_global_ctors_aux
00000000 l    df *ABS*  00000000              format2.c
080496b0 l     O .got.plt       00000000              .hidden _GLOBAL_OFFSET_TABLE_
080495c8 l       .ctors 00000000              .hidden __init_array_end
080495c8 l       .ctors 00000000              .hidden __init_array_start
080495dc l     O .dynamic       00000000              .hidden _DYNAMIC
080496d0  w      .data  00000000              data_start
080484d0 g     F .text  00000005              __libc_csu_fini
080483a0 g     F .text  00000000              _start
00000000  w      *UND*  00000000              __gmon_start__
00000000  w      *UND*  00000000              _Jv_RegisterClasses
08048588 g     O .rodata        00000004              _fp_hw
0804856c g     F .fini  00000000              _fini
00000000       F *UND*  00000000              fgets@@GLIBC_2.0
00000000       F *UND*  00000000              __libc_start_main@@GLIBC_2.0
0804858c g     O .rodata        00000004              _IO_stdin_used
080496d0 g       .data  00000000              __data_start
080496d4 g     O .data  00000000              .hidden __dso_handle
080495d4 g     O .dtors 00000000              .hidden __DTOR_END__
080484e0 g     F .text  0000005a              __libc_csu_init
00000000       F *UND*  00000000              printf@@GLIBC_2.0
080496d8 g       *ABS*  00000000              __bss_start
08048454 g     F .text  00000067              vuln
080496d8 g     O .bss   00000004              stdin@@GLIBC_2.0
080496e4 g     O .bss   00000004              target
080496e8 g       *ABS*  00000000              _end
00000000       F *UND*  00000000              puts@@GLIBC_2.0
080496d8 g       *ABS*  00000000              _edata
0804853a g     F .text  00000000              .hidden __i686.get_pc_thunk.bx
080484bb g     F .text  0000000f              main
0804830c g     F .init  00000000              _init



Disassembly of section .init:

0804830c <_init>:
 804830c:       55                      push   ebp
 804830d:       89 e5                   mov    ebp,esp
 804830f:       53                      push   ebx
 8048310:       83 ec 04                sub    esp,0x4
 8048313:       e8 00 00 00 00          call   8048318 <_init+0xc>
 8048318:       5b                      pop    ebx
 8048319:       81 c3 98 13 00 00       add    ebx,0x1398
 804831f:       8b 93 fc ff ff ff       mov    edx,DWORD PTR [ebx-0x4]
 8048325:       85 d2                   test   edx,edx
 8048327:       74 05                   je     804832e <_init+0x22>
 8048329:       e8 1e 00 00 00          call   804834c <__gmon_start__@plt>
 804832e:       e8 fd 00 00 00          call   8048430 <frame_dummy>
 8048333:       e8 08 02 00 00          call   8048540 <__do_global_ctors_aux>
 8048338:       58                      pop    eax
 8048339:       5b                      pop    ebx
 804833a:       c9                      leave
 804833b:       c3                      ret

Disassembly of section .plt:

0804833c <__gmon_start__@plt-0x10>:
 804833c:       ff 35 b4 96 04 08       push   DWORD PTR ds:0x80496b4
 8048342:       ff 25 b8 96 04 08       jmp    DWORD PTR ds:0x80496b8
 8048348:       00 00                   add    BYTE PTR [eax],al
        ...

0804834c <__gmon_start__@plt>:
 804834c:       ff 25 bc 96 04 08       jmp    DWORD PTR ds:0x80496bc
 8048352:       68 00 00 00 00          push   0x0
 8048357:       e9 e0 ff ff ff          jmp    804833c <_init+0x30>

0804835c <fgets@plt>:
 804835c:       ff 25 c0 96 04 08       jmp    DWORD PTR ds:0x80496c0
 8048362:       68 08 00 00 00          push   0x8
 8048367:       e9 d0 ff ff ff          jmp    804833c <_init+0x30>

0804836c <__libc_start_main@plt>:
 804836c:       ff 25 c4 96 04 08       jmp    DWORD PTR ds:0x80496c4
 8048372:       68 10 00 00 00          push   0x10
 8048377:       e9 c0 ff ff ff          jmp    804833c <_init+0x30>

0804837c <printf@plt>:
 804837c:       ff 25 c8 96 04 08       jmp    DWORD PTR ds:0x80496c8
 8048382:       68 18 00 00 00          push   0x18
 8048387:       e9 b0 ff ff ff          jmp    804833c <_init+0x30>

0804838c <puts@plt>:
 804838c:       ff 25 cc 96 04 08       jmp    DWORD PTR ds:0x80496cc
 8048392:       68 20 00 00 00          push   0x20
 8048397:       e9 a0 ff ff ff          jmp    804833c <_init+0x30>

Disassembly of section .text:

080483a0 <_start>:
 80483a0:       31 ed                   xor    ebp,ebp
 80483a2:       5e                      pop    esi
 80483a3:       89 e1                   mov    ecx,esp
 80483a5:       83 e4 f0                and    esp,0xfffffff0
 80483a8:       50                      push   eax
 80483a9:       54                      push   esp
 80483aa:       52                      push   edx
 80483ab:       68 d0 84 04 08          push   0x80484d0
 80483b0:       68 e0 84 04 08          push   0x80484e0
 80483b5:       51                      push   ecx
 80483b6:       56                      push   esi
 80483b7:       68 bb 84 04 08          push   0x80484bb
 80483bc:       e8 ab ff ff ff          call   804836c <__libc_start_main@plt>
 80483c1:       f4                      hlt
 80483c2:       90                      nop
 80483c3:       90                      nop
 80483c4:       90                      nop
 80483c5:       90                      nop
 80483c6:       90                      nop
 80483c7:       90                      nop
 80483c8:       90                      nop
 80483c9:       90                      nop
 80483ca:       90                      nop
 80483cb:       90                      nop
 80483cc:       90                      nop
 80483cd:       90                      nop
 80483ce:       90                      nop
 80483cf:       90                      nop

080483d0 <__do_global_dtors_aux>:
 80483d0:       55                      push   ebp
 80483d1:       89 e5                   mov    ebp,esp
 80483d3:       53                      push   ebx
 80483d4:       83 ec 04                sub    esp,0x4
 80483d7:       80 3d dc 96 04 08 00    cmp    BYTE PTR ds:0x80496dc,0x0
 80483de:       75 3f                   jne    804841f <__do_global_dtors_aux+0x4f>
 80483e0:       a1 e0 96 04 08          mov    eax,ds:0x80496e0
 80483e5:       bb d4 95 04 08          mov    ebx,0x80495d4
 80483ea:       81 eb d0 95 04 08       sub    ebx,0x80495d0
 80483f0:       c1 fb 02                sar    ebx,0x2
 80483f3:       83 eb 01                sub    ebx,0x1
 80483f6:       39 d8                   cmp    eax,ebx
 80483f8:       73 1e                   jae    8048418 <__do_global_dtors_aux+0x48>
 80483fa:       8d b6 00 00 00 00       lea    esi,[esi+0x0]
 8048400:       83 c0 01                add    eax,0x1
 8048403:       a3 e0 96 04 08          mov    ds:0x80496e0,eax
 8048408:       ff 14 85 d0 95 04 08    call   DWORD PTR [eax*4+0x80495d0]
 804840f:       a1 e0 96 04 08          mov    eax,ds:0x80496e0
 8048414:       39 d8                   cmp    eax,ebx
 8048416:       72 e8                   jb     8048400 <__do_global_dtors_aux+0x30>
 8048418:       c6 05 dc 96 04 08 01    mov    BYTE PTR ds:0x80496dc,0x1
 804841f:       83 c4 04                add    esp,0x4
 8048422:       5b                      pop    ebx
 8048423:       5d                      pop    ebp
 8048424:       c3                      ret
 8048425:       8d 74 26 00             lea    esi,[esi+eiz*1+0x0]
 8048429:       8d bc 27 00 00 00 00    lea    edi,[edi+eiz*1+0x0]

08048430 <frame_dummy>:
 8048430:       55                      push   ebp
 8048431:       89 e5                   mov    ebp,esp
 8048433:       83 ec 18                sub    esp,0x18
 8048436:       a1 d8 95 04 08          mov    eax,ds:0x80495d8
 804843b:       85 c0                   test   eax,eax
 804843d:       74 12                   je     8048451 <frame_dummy+0x21>
 804843f:       b8 00 00 00 00          mov    eax,0x0
 8048444:       85 c0                   test   eax,eax
 8048446:       74 09                   je     8048451 <frame_dummy+0x21>
 8048448:       c7 04 24 d8 95 04 08    mov    DWORD PTR [esp],0x80495d8
 804844f:       ff d0                   call   eax
 8048451:       c9                      leave
 8048452:       c3                      ret
 8048453:       90                      nop

08048454 <vuln>:
 8048454:       55                      push   ebp
 8048455:       89 e5                   mov    ebp,esp
 8048457:       81 ec 18 02 00 00       sub    esp,0x218
 804845d:       a1 d8 96 04 08          mov    eax,ds:0x80496d8
 8048462:       89 44 24 08             mov    DWORD PTR [esp+0x8],eax
 8048466:       c7 44 24 04 00 02 00    mov    DWORD PTR [esp+0x4],0x200
 804846d:       00
 804846e:       8d 85 f8 fd ff ff       lea    eax,[ebp-0x208]
 8048474:       89 04 24                mov    DWORD PTR [esp],eax
 8048477:       e8 e0 fe ff ff          call   804835c <fgets@plt>
 804847c:       8d 85 f8 fd ff ff       lea    eax,[ebp-0x208]
 8048482:       89 04 24                mov    DWORD PTR [esp],eax
 8048485:       e8 f2 fe ff ff          call   804837c <printf@plt>
 804848a:       a1 e4 96 04 08          mov    eax,ds:0x80496e4
 804848f:       83 f8 40                cmp    eax,0x40
 8048492:       75 0e                   jne    80484a2 <vuln+0x4e>
 8048494:       c7 04 24 90 85 04 08    mov    DWORD PTR [esp],0x8048590
 804849b:       e8 ec fe ff ff          call   804838c <puts@plt>
 80484a0:       eb 17                   jmp    80484b9 <vuln+0x65>
 80484a2:       8b 15 e4 96 04 08       mov    edx,DWORD PTR ds:0x80496e4
 80484a8:       b8 b0 85 04 08          mov    eax,0x80485b0
 80484ad:       89 54 24 04             mov    DWORD PTR [esp+0x4],edx
 80484b1:       89 04 24                mov    DWORD PTR [esp],eax
 80484b4:       e8 c3 fe ff ff          call   804837c <printf@plt>
 80484b9:       c9                      leave
 80484ba:       c3                      ret

080484bb <main>:
 80484bb:       55                      push   ebp
 80484bc:       89 e5                   mov    ebp,esp
 80484be:       83 e4 f0                and    esp,0xfffffff0
 80484c1:       e8 8e ff ff ff          call   8048454 <vuln>
 80484c6:       89 ec                   mov    esp,ebp
 80484c8:       5d                      pop    ebp
 80484c9:       c3                      ret
 80484ca:       90                      nop
 80484cb:       90                      nop
 80484cc:       90                      nop
 80484cd:       90                      nop
 80484ce:       90                      nop
 80484cf:       90                      nop

080484d0 <__libc_csu_fini>:
 80484d0:       55                      push   ebp
 80484d1:       89 e5                   mov    ebp,esp
 80484d3:       5d                      pop    ebp
 80484d4:       c3                      ret
 80484d5:       8d 74 26 00             lea    esi,[esi+eiz*1+0x0]
 80484d9:       8d bc 27 00 00 00 00    lea    edi,[edi+eiz*1+0x0]

080484e0 <__libc_csu_init>:
 80484e0:       55                      push   ebp
 80484e1:       89 e5                   mov    ebp,esp
 80484e3:       57                      push   edi
 80484e4:       56                      push   esi
 80484e5:       53                      push   ebx
 80484e6:       e8 4f 00 00 00          call   804853a <__i686.get_pc_thunk.bx>
 80484eb:       81 c3 c5 11 00 00       add    ebx,0x11c5
 80484f1:       83 ec 1c                sub    esp,0x1c
 80484f4:       e8 13 fe ff ff          call   804830c <_init>
 80484f9:       8d bb 18 ff ff ff       lea    edi,[ebx-0xe8]
 80484ff:       8d 83 18 ff ff ff       lea    eax,[ebx-0xe8]
 8048505:       29 c7                   sub    edi,eax
 8048507:       c1 ff 02                sar    edi,0x2
 804850a:       85 ff                   test   edi,edi
 804850c:       74 24                   je     8048532 <__libc_csu_init+0x52>
 804850e:       31 f6                   xor    esi,esi
 8048510:       8b 45 10                mov    eax,DWORD PTR [ebp+0x10]
 8048513:       89 44 24 08             mov    DWORD PTR [esp+0x8],eax
 8048517:       8b 45 0c                mov    eax,DWORD PTR [ebp+0xc]
 804851a:       89 44 24 04             mov    DWORD PTR [esp+0x4],eax
 804851e:       8b 45 08                mov    eax,DWORD PTR [ebp+0x8]
 8048521:       89 04 24                mov    DWORD PTR [esp],eax
 8048524:       ff 94 b3 18 ff ff ff    call   DWORD PTR [ebx+esi*4-0xe8]
 804852b:       83 c6 01                add    esi,0x1
 804852e:       39 fe                   cmp    esi,edi
 8048530:       72 de                   jb     8048510 <__libc_csu_init+0x30>
 8048532:       83 c4 1c                add    esp,0x1c
 8048535:       5b                      pop    ebx
 8048536:       5e                      pop    esi
 8048537:       5f                      pop    edi
 8048538:       5d                      pop    ebp
 8048539:       c3                      ret

0804853a <__i686.get_pc_thunk.bx>:
 804853a:       8b 1c 24                mov    ebx,DWORD PTR [esp]
 804853d:       c3                      ret
 804853e:       90                      nop
 804853f:       90                      nop

08048540 <__do_global_ctors_aux>:
 8048540:       55                      push   ebp
 8048541:       89 e5                   mov    ebp,esp
 8048543:       53                      push   ebx
 8048544:       83 ec 04                sub    esp,0x4
 8048547:       a1 c8 95 04 08          mov    eax,ds:0x80495c8
 804854c:       83 f8 ff                cmp    eax,0xffffffff
 804854f:       74 13                   je     8048564 <__do_global_ctors_aux+0x24>
 8048551:       bb c8 95 04 08          mov    ebx,0x80495c8
 8048556:       66 90                   xchg   ax,ax
 8048558:       83 eb 04                sub    ebx,0x4
 804855b:       ff d0                   call   eax
 804855d:       8b 03                   mov    eax,DWORD PTR [ebx]
 804855f:       83 f8 ff                cmp    eax,0xffffffff
 8048562:       75 f4                   jne    8048558 <__do_global_ctors_aux+0x18>
 8048564:       83 c4 04                add    esp,0x4
 8048567:       5b                      pop    ebx
 8048568:       5d                      pop    ebp
 8048569:       c3                      ret
 804856a:       90                      nop
 804856b:       90                      nop

Disassembly of section .fini:

0804856c <_fini>:
 804856c:       55                      push   ebp
 804856d:       89 e5                   mov    ebp,esp
 804856f:       53                      push   ebx
 8048570:       83 ec 04                sub    esp,0x4
 8048573:       e8 00 00 00 00          call   8048578 <_fini+0xc>
 8048578:       5b                      pop    ebx
 8048579:       81 c3 38 11 00 00       add    ebx,0x1138
 804857f:       e8 4c fe ff ff          call   80483d0 <__do_global_dtors_aux>
 8048584:       59                      pop    ecx
 8048585:       5b                      pop    ebx
 8048586:       c9                      leave
 8048587:       c3                      ret